target datalayout = "e-m:e-p270:32:32-p271:32:32-p272:64:64-i64:64-i128:128-f80:128-n8:16:32:64-S128"
target triple = "x86_64-pc-linux-gnu"

%"class.std::__cxx11::basic_string" = type { %"struct.std::__cxx11::basic_string<char>::_Alloc_hider", i64, %union.anon }
%"struct.std::__cxx11::basic_string<char>::_Alloc_hider" = type { ptr }
%union.anon = type { i64, [8 x i8] }
%"struct.lean::tout" = type { %"class.lean::sstream" }
%"class.lean::sstream" = type { %"class.std::__cxx11::basic_ostringstream" }
%"class.std::__cxx11::basic_ostringstream" = type { %"class.std::basic_ostream.base", %"class.std::__cxx11::basic_stringbuf", %"class.std::basic_ios" }
%"class.std::basic_ostream.base" = type { ptr }
%"class.std::__cxx11::basic_stringbuf" = type { %"class.std::basic_streambuf", i32, %"class.std::__cxx11::basic_string" }
%"class.std::basic_streambuf" = type { ptr, ptr, ptr, ptr, ptr, ptr, ptr, %"class.std::locale" }
%"class.std::locale" = type { ptr }
%"class.std::basic_ios" = type { %"class.std::ios_base", ptr, i8, i8, ptr, ptr, ptr, ptr }
%"class.std::ios_base" = type { ptr, i64, i64, i32, i32, i32, ptr, %"struct.std::ios_base::_Words", [8 x %"struct.std::ios_base::_Words"], i32, ptr, %"class.std::locale" }
%"struct.std::ios_base::_Words" = type { ptr, i64 }

@.str.2 = private unnamed_addr constant [4 x i8] c"0x0\00", align 1

; Function Attrs: inlinehint mustprogress nounwind uwtable
define linkonce_odr noundef i32 @_ZStorSt12_Ios_IostateS_(i32 noundef %0, i32 noundef %1) #3 comdat {
  %3 = alloca i32, align 4
  %4 = alloca i32, align 4
  store i32 %0, ptr %3, align 4, !tbaa !215
  store i32 %1, ptr %4, align 4, !tbaa !215
  %5 = load i32, ptr %3, align 4, !tbaa !215
  %6 = load i32, ptr %4, align 4, !tbaa !215
  %7 = or i32 %5, %6
  ret i32 %7
}

; Function Attrs: mustprogress nounwind uwtable
define available_externally noundef i32 @_ZNKSt9basic_iosIcSt11char_traitsIcEE7rdstateEv(ptr noundef nonnull align 8 dereferenceable(264) %0) #2 align 2 {
  %2 = alloca ptr, align 8
  store ptr %0, ptr %2, align 8, !tbaa !146
  %3 = load ptr, ptr %2, align 8
  %4 = getelementptr inbounds nuw %"class.std::ios_base", ptr %3, i32 0, i32 5
  %5 = load i32, ptr %4, align 8, !tbaa !216
  ret i32 %5
}

; Function Attrs: mustprogress nounwind uwtable
define linkonce_odr hidden noundef i64 @_ZNSt11char_traitsIcE6lengthEPKc(ptr noundef %0) #2 comdat align 2 {
  %2 = alloca ptr, align 8
  store ptr %0, ptr %2, align 8, !tbaa !9
  %3 = load ptr, ptr %2, align 8, !tbaa !9
  %4 = call i64 @strlen(ptr noundef %3) #18
  ret i64 %4
}

; Function Attrs: mustprogress uwtable
define available_externally void @_ZNSt9basic_iosIcSt11char_traitsIcEE8setstateESt12_Ios_Iostate(ptr noundef nonnull align 8 dereferenceable(264) %0, i32 noundef %1) #0 align 2 {
  %3 = alloca ptr, align 8
  %4 = alloca i32, align 4
  store ptr %0, ptr %3, align 8, !tbaa !146
  store i32 %1, ptr %4, align 4, !tbaa !215
  %5 = load ptr, ptr %3, align 8
  %6 = call noundef i32 @_ZNKSt9basic_iosIcSt11char_traitsIcEE7rdstateEv(ptr noundef nonnull align 8 dereferenceable(264) %5)
  %7 = load i32, ptr %4, align 4, !tbaa !215
  %8 = call noundef i32 @_ZStorSt12_Ios_IostateS_(i32 noundef %6, i32 noundef %7)
  call void @_ZNSt9basic_iosIcSt11char_traitsIcEE5clearESt12_Ios_Iostate(ptr noundef nonnull align 8 dereferenceable(264) %5, i32 noundef %8)
  ret void
}

; Function Attrs: mustprogress uwtable
define available_externally noundef nonnull align 8 dereferenceable(8) ptr @_ZNSolsEPKv(ptr noundef nonnull align 8 dereferenceable(8) %0, ptr noundef %1) #0 align 2 {
  %3 = alloca ptr, align 8
  %4 = alloca ptr, align 8
  store ptr %0, ptr %3, align 8, !tbaa !169
  store ptr %1, ptr %4, align 8, !tbaa !3
  %5 = load ptr, ptr %3, align 8
  %6 = load ptr, ptr %4, align 8, !tbaa !3
  %7 = call noundef nonnull align 8 dereferenceable(8) ptr @_ZNSo9_M_insertIPKvEERSoT_(ptr noundef nonnull align 8 dereferenceable(8) %5, ptr noundef %6)
  ret ptr %7
}

; Function Attrs: inlinehint mustprogress uwtable
define available_externally noundef nonnull align 8 dereferenceable(8) ptr @_ZStlsISt11char_traitsIcEERSt13basic_ostreamIcT_ES5_PKc(ptr noundef nonnull align 8 dereferenceable(8) %0, ptr noundef %1) #1 {
  %3 = alloca ptr, align 8
  %4 = alloca ptr, align 8
  store ptr %0, ptr %3, align 8, !tbaa !169
  store ptr %1, ptr %4, align 8, !tbaa !9
  %5 = load ptr, ptr %4, align 8, !tbaa !9
  %6 = icmp ne ptr %5, null
  br i1 %6, label %13, label %7

7:                                                ; preds = %2
  %8 = load ptr, ptr %3, align 8, !tbaa !169
  %9 = load ptr, ptr %8, align 8, !tbaa !11
  %10 = getelementptr i8, ptr %9, i64 -24
  %11 = load i64, ptr %10, align 8
  %12 = getelementptr inbounds i8, ptr %8, i64 %11
  call void @_ZNSt9basic_iosIcSt11char_traitsIcEE8setstateESt12_Ios_Iostate(ptr noundef nonnull align 8 dereferenceable(264) %12, i32 noundef 1)
  br label %19

13:                                               ; preds = %2
  %14 = load ptr, ptr %3, align 8, !tbaa !169
  %15 = load ptr, ptr %4, align 8, !tbaa !9
  %16 = load ptr, ptr %4, align 8, !tbaa !9
  %17 = call noundef i64 @_ZNSt11char_traitsIcE6lengthEPKc(ptr noundef %16)
  %18 = call noundef nonnull align 8 dereferenceable(8) ptr @_ZSt16__ostream_insertIcSt11char_traitsIcEERSt13basic_ostreamIT_T0_ES6_PKS3_l(ptr noundef nonnull align 8 dereferenceable(8) %14, ptr noundef %15, i64 noundef %17)
  br label %19

19:                                               ; preds = %13, %7
  %20 = load ptr, ptr %3, align 8, !tbaa !169
  ret ptr %20
}

; Function Attrs: mustprogress uwtable
define available_externally noundef nonnull align 8 dereferenceable(8) ptr @_ZNSolsEm(ptr noundef nonnull align 8 dereferenceable(8) %0, i64 noundef %1) #0 align 2 {
  %3 = alloca ptr, align 8
  %4 = alloca i64, align 8
  store ptr %0, ptr %3, align 8, !tbaa !169
  store i64 %1, ptr %4, align 8, !tbaa !34
  %5 = load ptr, ptr %3, align 8
  %6 = load i64, ptr %4, align 8, !tbaa !34
  %7 = call noundef nonnull align 8 dereferenceable(8) ptr @_ZNSo9_M_insertImEERSoT_(ptr noundef nonnull align 8 dereferenceable(8) %5, i64 noundef %6)
  ret ptr %7
}

; Function Attrs: mustprogress uwtable
define available_externally noundef nonnull align 8 dereferenceable(8) ptr @_ZNSolsEf(ptr noundef nonnull align 8 dereferenceable(8) %0, float noundef %1) #0 align 2 {
  %3 = alloca ptr, align 8
  %4 = alloca float, align 4
  store ptr %0, ptr %3, align 8, !tbaa !169
  store float %1, ptr %4, align 4, !tbaa !32
  %5 = load ptr, ptr %3, align 8
  %6 = load float, ptr %4, align 4, !tbaa !32
  %7 = fpext float %6 to double
  %8 = call noundef nonnull align 8 dereferenceable(8) ptr @_ZNSo9_M_insertIdEERSoT_(ptr noundef nonnull align 8 dereferenceable(8) %5, double noundef %7)
  ret ptr %8
}

; Function Attrs: mustprogress uwtable
define available_externally noundef nonnull align 8 dereferenceable(8) ptr @_ZNSolsEd(ptr noundef nonnull align 8 dereferenceable(8) %0, double noundef %1) #0 align 2 {
  %3 = alloca ptr, align 8
  %4 = alloca double, align 8
  store ptr %0, ptr %3, align 8, !tbaa !169
  store double %1, ptr %4, align 8, !tbaa !30
  %5 = load ptr, ptr %3, align 8
  %6 = load double, ptr %4, align 8, !tbaa !30
  %7 = call noundef nonnull align 8 dereferenceable(8) ptr @_ZNSo9_M_insertIdEERSoT_(ptr noundef nonnull align 8 dereferenceable(8) %5, double noundef %6)
  ret ptr %7
}

; Function Attrs: mustprogress uwtable
define linkonce_odr hidden noundef nonnull align 8 dereferenceable(376) ptr @_ZN4lean7sstreamlsIP11lean_objectEERS0_RKT_(ptr noundef nonnull align 8 dereferenceable(376) %0, ptr noundef nonnull align 8 dereferenceable(8) %1) #0 comdat align 2 {
  %3 = alloca ptr, align 8
  %4 = alloca ptr, align 8
  store ptr %0, ptr %3, align 8, !tbaa !67
  store ptr %1, ptr %4, align 8, !tbaa !50
  %5 = load ptr, ptr %3, align 8
  %6 = getelementptr inbounds nuw %"class.lean::sstream", ptr %5, i32 0, i32 0
  %7 = load ptr, ptr %4, align 8, !tbaa !50
  %8 = load ptr, ptr %7, align 8, !tbaa !3
  %9 = call noundef nonnull align 8 dereferenceable(8) ptr @_ZNSolsEPKv(ptr noundef nonnull align 8 dereferenceable(8) %6, ptr noundef %8)
  ret ptr %5
}

; Function Attrs: mustprogress uwtable
define linkonce_odr hidden noundef nonnull align 8 dereferenceable(376) ptr @_ZN4lean7sstreamlsIA4_cEERS0_RKT_(ptr noundef nonnull align 8 dereferenceable(376) %0, ptr noundef nonnull align 1 dereferenceable(4) %1) #0 comdat align 2 {
  %3 = alloca ptr, align 8
  %4 = alloca ptr, align 8
  store ptr %0, ptr %3, align 8, !tbaa !67
  store ptr %1, ptr %4, align 8, !tbaa !9
  %5 = load ptr, ptr %3, align 8
  %6 = getelementptr inbounds nuw %"class.lean::sstream", ptr %5, i32 0, i32 0
  %7 = load ptr, ptr %4, align 8, !tbaa !9
  %8 = getelementptr inbounds [4 x i8], ptr %7, i64 0, i64 0
  %9 = call noundef nonnull align 8 dereferenceable(8) ptr @_ZStlsISt11char_traitsIcEERSt13basic_ostreamIcT_ES5_PKc(ptr noundef nonnull align 8 dereferenceable(8) %6, ptr noundef %8)
  ret ptr %5
}

; Function Attrs: inlinehint mustprogress nounwind uwtable
define internal noundef i64 @_ZL10lean_unboxP11lean_object(ptr noundef %0) #3 {
  %2 = alloca ptr, align 8
  store ptr %0, ptr %2, align 8, !tbaa !3
  %3 = load ptr, ptr %2, align 8, !tbaa !3
  %4 = ptrtoint ptr %3 to i64
  %5 = lshr i64 %4, 1
  ret i64 %5
}

; Function Attrs: alwaysinline mustprogress nounwind uwtable
define internal noundef zeroext i1 @_ZL14lean_is_scalarP11lean_object(ptr noundef %0) #12 {
  %2 = alloca ptr, align 8
  store ptr %0, ptr %2, align 8, !tbaa !3
  %3 = load ptr, ptr %2, align 8, !tbaa !3
  %4 = ptrtoint ptr %3 to i64
  %5 = and i64 %4, 1
  %6 = icmp eq i64 %5, 1
  ret i1 %6
}

; Function Attrs: mustprogress uwtable
define linkonce_odr hidden noundef nonnull align 8 dereferenceable(376) ptr @_ZN4lean7sstreamlsImEERS0_RKT_(ptr noundef nonnull align 8 dereferenceable(376) %0, ptr noundef nonnull align 8 dereferenceable(8) %1) #0 comdat align 2 {
  %3 = alloca ptr, align 8
  %4 = alloca ptr, align 8
  store ptr %0, ptr %3, align 8, !tbaa !67
  store ptr %1, ptr %4, align 8, !tbaa !48
  %5 = load ptr, ptr %3, align 8
  %6 = getelementptr inbounds nuw %"class.lean::sstream", ptr %5, i32 0, i32 0
  %7 = load ptr, ptr %4, align 8, !tbaa !48
  %8 = load i64, ptr %7, align 8, !tbaa !34
  %9 = call noundef nonnull align 8 dereferenceable(8) ptr @_ZNSolsEm(ptr noundef nonnull align 8 dereferenceable(8) %6, i64 noundef %8)
  ret ptr %5
}

; Function Attrs: mustprogress uwtable
define linkonce_odr hidden noundef nonnull align 8 dereferenceable(376) ptr @_ZN4lean7sstreamlsIfEERS0_RKT_(ptr noundef nonnull align 8 dereferenceable(376) %0, ptr noundef nonnull align 4 dereferenceable(4) %1) #0 comdat align 2 {
  %3 = alloca ptr, align 8
  %4 = alloca ptr, align 8
  store ptr %0, ptr %3, align 8, !tbaa !67
  store ptr %1, ptr %4, align 8, !tbaa !46
  %5 = load ptr, ptr %3, align 8
  %6 = getelementptr inbounds nuw %"class.lean::sstream", ptr %5, i32 0, i32 0
  %7 = load ptr, ptr %4, align 8, !tbaa !46
  %8 = load float, ptr %7, align 4, !tbaa !32
  %9 = call noundef nonnull align 8 dereferenceable(8) ptr @_ZNSolsEf(ptr noundef nonnull align 8 dereferenceable(8) %6, float noundef %8)
  ret ptr %5
}

; Function Attrs: mustprogress uwtable
define linkonce_odr hidden noundef nonnull align 8 dereferenceable(376) ptr @_ZN4lean7sstreamlsIdEERS0_RKT_(ptr noundef nonnull align 8 dereferenceable(376) %0, ptr noundef nonnull align 8 dereferenceable(8) %1) #0 comdat align 2 {
  %3 = alloca ptr, align 8
  %4 = alloca ptr, align 8
  store ptr %0, ptr %3, align 8, !tbaa !67
  store ptr %1, ptr %4, align 8, !tbaa !44
  %5 = load ptr, ptr %3, align 8
  %6 = getelementptr inbounds nuw %"class.lean::sstream", ptr %5, i32 0, i32 0
  %7 = load ptr, ptr %4, align 8, !tbaa !44
  %8 = load double, ptr %7, align 8, !tbaa !30
  %9 = call noundef nonnull align 8 dereferenceable(8) ptr @_ZNSolsEd(ptr noundef nonnull align 8 dereferenceable(8) %6, double noundef %8)
  ret ptr %5
}

; Function Attrs: mustprogress uwtable
define linkonce_odr hidden noundef nonnull align 8 dereferenceable(376) ptr @_ZN4leanlsIP11lean_objectEERNS_4toutERKS3_RKT_(ptr noundef nonnull align 8 dereferenceable(376) %0, ptr noundef nonnull align 8 dereferenceable(8) %1) #0 comdat {
  %3 = alloca ptr, align 8
  %4 = alloca ptr, align 8
  %5 = alloca ptr, align 8
  store ptr %0, ptr %3, align 8, !tbaa !42
  store ptr %1, ptr %4, align 8, !tbaa !50
  call void @llvm.lifetime.start.p0(i64 8, ptr %5) #18
  %6 = load ptr, ptr %3, align 8, !tbaa !42
  store ptr %6, ptr %5, align 8, !tbaa !42
  %7 = load ptr, ptr %5, align 8, !tbaa !42
  %8 = getelementptr inbounds nuw %"struct.lean::tout", ptr %7, i32 0, i32 0
  %9 = load ptr, ptr %4, align 8, !tbaa !50
  %10 = call noundef nonnull align 8 dereferenceable(376) ptr @_ZN4lean7sstreamlsIP11lean_objectEERS0_RKT_(ptr noundef nonnull align 8 dereferenceable(376) %8, ptr noundef nonnull align 8 dereferenceable(8) %9)
  %11 = load ptr, ptr %5, align 8, !tbaa !42
  call void @llvm.lifetime.end.p0(i64 8, ptr %5) #18
  ret ptr %11
}

; Function Attrs: mustprogress uwtable
define linkonce_odr hidden noundef nonnull align 8 dereferenceable(376) ptr @_ZN4leanlsIA4_cEERNS_4toutERKS2_RKT_(ptr noundef nonnull align 8 dereferenceable(376) %0, ptr noundef nonnull align 1 dereferenceable(4) %1) #0 comdat {
  %3 = alloca ptr, align 8
  %4 = alloca ptr, align 8
  %5 = alloca ptr, align 8
  store ptr %0, ptr %3, align 8, !tbaa !42
  store ptr %1, ptr %4, align 8, !tbaa !9
  call void @llvm.lifetime.start.p0(i64 8, ptr %5) #18
  %6 = load ptr, ptr %3, align 8, !tbaa !42
  store ptr %6, ptr %5, align 8, !tbaa !42
  %7 = load ptr, ptr %5, align 8, !tbaa !42
  %8 = getelementptr inbounds nuw %"struct.lean::tout", ptr %7, i32 0, i32 0
  %9 = load ptr, ptr %4, align 8, !tbaa !9
  %10 = call noundef nonnull align 8 dereferenceable(376) ptr @_ZN4lean7sstreamlsIA4_cEERS0_RKT_(ptr noundef nonnull align 8 dereferenceable(376) %8, ptr noundef nonnull align 1 dereferenceable(4) %9)
  %11 = load ptr, ptr %5, align 8, !tbaa !42
  call void @llvm.lifetime.end.p0(i64 8, ptr %5) #18
  ret ptr %11
}

; Function Attrs: inlinehint mustprogress uwtable
define linkonce_odr hidden noundef i64 @_ZN4lean5unboxEP11lean_object(ptr noundef %0) #1 comdat {
  %2 = alloca ptr, align 8
  store ptr %0, ptr %2, align 8, !tbaa !3
  %3 = load ptr, ptr %2, align 8, !tbaa !3
  %4 = call noundef i64 @_ZL10lean_unboxP11lean_object(ptr noundef %3)
  ret i64 %4
}

; Function Attrs: inlinehint mustprogress uwtable
define linkonce_odr hidden noundef zeroext i1 @_ZN4lean9is_scalarEP11lean_object(ptr noundef %0) #1 comdat {
  %2 = alloca ptr, align 8
  store ptr %0, ptr %2, align 8, !tbaa !3
  %3 = load ptr, ptr %2, align 8, !tbaa !3
  %4 = call noundef zeroext i1 @_ZL14lean_is_scalarP11lean_object(ptr noundef %3)
  ret i1 %4
}

; Function Attrs: mustprogress uwtable
define linkonce_odr hidden noundef nonnull align 8 dereferenceable(376) ptr @_ZN4leanlsImEERNS_4toutERKS1_RKT_(ptr noundef nonnull align 8 dereferenceable(376) %0, ptr noundef nonnull align 8 dereferenceable(8) %1) #0 comdat {
  %3 = alloca ptr, align 8
  %4 = alloca ptr, align 8
  %5 = alloca ptr, align 8
  store ptr %0, ptr %3, align 8, !tbaa !42
  store ptr %1, ptr %4, align 8, !tbaa !48
  call void @llvm.lifetime.start.p0(i64 8, ptr %5) #18
  %6 = load ptr, ptr %3, align 8, !tbaa !42
  store ptr %6, ptr %5, align 8, !tbaa !42
  %7 = load ptr, ptr %5, align 8, !tbaa !42
  %8 = getelementptr inbounds nuw %"struct.lean::tout", ptr %7, i32 0, i32 0
  %9 = load ptr, ptr %4, align 8, !tbaa !48
  %10 = call noundef nonnull align 8 dereferenceable(376) ptr @_ZN4lean7sstreamlsImEERS0_RKT_(ptr noundef nonnull align 8 dereferenceable(376) %8, ptr noundef nonnull align 8 dereferenceable(8) %9)
  %11 = load ptr, ptr %5, align 8, !tbaa !42
  call void @llvm.lifetime.end.p0(i64 8, ptr %5) #18
  ret ptr %11
}

; Function Attrs: mustprogress nounwind uwtable
define internal noundef zeroext i1 @_ZN4lean2irL14type_is_scalarENS0_4typeE(i32 noundef %0) #2 {
  %2 = alloca i32, align 4
  store i32 %0, ptr %2, align 4, !tbaa !27
  %3 = load i32, ptr %2, align 4, !tbaa !27
  %4 = icmp ne i32 %3, 7
  br i1 %4, label %5, label %11

5:                                                ; preds = %1
  %6 = load i32, ptr %2, align 4, !tbaa !27
  %7 = icmp ne i32 %6, 8
  br i1 %7, label %8, label %11

8:                                                ; preds = %5
  %9 = load i32, ptr %2, align 4, !tbaa !27
  %10 = icmp ne i32 %9, 6
  br label %11

11:                                               ; preds = %8, %5, %1
  %12 = phi i1 [ false, %5 ], [ false, %1 ], [ %10, %8 ]
  ret i1 %12
}

; Function Attrs: mustprogress uwtable
define linkonce_odr hidden noundef nonnull align 8 dereferenceable(376) ptr @_ZN4leanlsIfEERNS_4toutERKS1_RKT_(ptr noundef nonnull align 8 dereferenceable(376) %0, ptr noundef nonnull align 4 dereferenceable(4) %1) #0 comdat {
  %3 = alloca ptr, align 8
  %4 = alloca ptr, align 8
  %5 = alloca ptr, align 8
  store ptr %0, ptr %3, align 8, !tbaa !42
  store ptr %1, ptr %4, align 8, !tbaa !46
  call void @llvm.lifetime.start.p0(i64 8, ptr %5) #18
  %6 = load ptr, ptr %3, align 8, !tbaa !42
  store ptr %6, ptr %5, align 8, !tbaa !42
  %7 = load ptr, ptr %5, align 8, !tbaa !42
  %8 = getelementptr inbounds nuw %"struct.lean::tout", ptr %7, i32 0, i32 0
  %9 = load ptr, ptr %4, align 8, !tbaa !46
  %10 = call noundef nonnull align 8 dereferenceable(376) ptr @_ZN4lean7sstreamlsIfEERS0_RKT_(ptr noundef nonnull align 8 dereferenceable(376) %8, ptr noundef nonnull align 4 dereferenceable(4) %9)
  %11 = load ptr, ptr %5, align 8, !tbaa !42
  call void @llvm.lifetime.end.p0(i64 8, ptr %5) #18
  ret ptr %11
}

; Function Attrs: mustprogress uwtable
define linkonce_odr hidden noundef nonnull align 8 dereferenceable(376) ptr @_ZN4leanlsIdEERNS_4toutERKS1_RKT_(ptr noundef nonnull align 8 dereferenceable(376) %0, ptr noundef nonnull align 8 dereferenceable(8) %1) #0 comdat {
  %3 = alloca ptr, align 8
  %4 = alloca ptr, align 8
  %5 = alloca ptr, align 8
  store ptr %0, ptr %3, align 8, !tbaa !42
  store ptr %1, ptr %4, align 8, !tbaa !44
  call void @llvm.lifetime.start.p0(i64 8, ptr %5) #18
  %6 = load ptr, ptr %3, align 8, !tbaa !42
  store ptr %6, ptr %5, align 8, !tbaa !42
  %7 = load ptr, ptr %5, align 8, !tbaa !42
  %8 = getelementptr inbounds nuw %"struct.lean::tout", ptr %7, i32 0, i32 0
  %9 = load ptr, ptr %4, align 8, !tbaa !44
  %10 = call noundef nonnull align 8 dereferenceable(376) ptr @_ZN4lean7sstreamlsIdEERS0_RKT_(ptr noundef nonnull align 8 dereferenceable(376) %8, ptr noundef nonnull align 8 dereferenceable(8) %9)
  %11 = load ptr, ptr %5, align 8, !tbaa !42
  call void @llvm.lifetime.end.p0(i64 8, ptr %5) #18
  ret ptr %11
}

; Function Attrs: mustprogress uwtable
define hidden void @_ZN4lean2ir11print_valueERNS_4toutERKNS0_5valueENS0_4typeE(ptr noundef nonnull align 8 dereferenceable(376) %0, ptr noundef nonnull align 8 dereferenceable(8) %1, i32 noundef %2) #0 {
  %4 = alloca ptr, align 8
  %5 = alloca ptr, align 8
  %6 = alloca i32, align 4
  %7 = alloca i64, align 8
  store ptr %0, ptr %4, align 8, !tbaa !42
  store ptr %1, ptr %5, align 8, !tbaa !40
  store i32 %2, ptr %6, align 4, !tbaa !27
  %8 = load i32, ptr %6, align 4, !tbaa !27
  %9 = icmp eq i32 %8, 0
  br i1 %9, label %10, label %14

10:                                               ; preds = %3
  %11 = load ptr, ptr %4, align 8, !tbaa !42
  %12 = load ptr, ptr %5, align 8, !tbaa !40
  %13 = call noundef nonnull align 8 dereferenceable(376) ptr @_ZN4leanlsIdEERNS_4toutERKS1_RKT_(ptr noundef nonnull align 8 dereferenceable(376) %11, ptr noundef nonnull align 8 dereferenceable(8) %12)
  br label %53

14:                                               ; preds = %3
  %15 = load i32, ptr %6, align 4, !tbaa !27
  %16 = icmp eq i32 %15, 9
  br i1 %16, label %17, label %21

17:                                               ; preds = %14
  %18 = load ptr, ptr %4, align 8, !tbaa !42
  %19 = load ptr, ptr %5, align 8, !tbaa !40
  %20 = call noundef nonnull align 8 dereferenceable(376) ptr @_ZN4leanlsIfEERNS_4toutERKS1_RKT_(ptr noundef nonnull align 8 dereferenceable(376) %18, ptr noundef nonnull align 4 dereferenceable(4) %19)
  br label %52

21:                                               ; preds = %14
  %22 = load i32, ptr %6, align 4, !tbaa !27
  %23 = call noundef zeroext i1 @_ZN4lean2irL14type_is_scalarENS0_4typeE(i32 noundef %22)
  br i1 %23, label %24, label %28

24:                                               ; preds = %21
  %25 = load ptr, ptr %4, align 8, !tbaa !42
  %26 = load ptr, ptr %5, align 8, !tbaa !40
  %27 = call noundef nonnull align 8 dereferenceable(376) ptr @_ZN4leanlsImEERNS_4toutERKS1_RKT_(ptr noundef nonnull align 8 dereferenceable(376) %25, ptr noundef nonnull align 8 dereferenceable(8) %26)
  br label %51

28:                                               ; preds = %21
  %29 = load ptr, ptr %5, align 8, !tbaa !40
  %30 = load ptr, ptr %29, align 8, !tbaa !29
  %31 = call noundef zeroext i1 @_ZN4lean9is_scalarEP11lean_object(ptr noundef %30)
  br i1 %31, label %32, label %38

32:                                               ; preds = %28
  %33 = load ptr, ptr %4, align 8, !tbaa !42
  call void @llvm.lifetime.start.p0(i64 8, ptr %7) #18
  %34 = load ptr, ptr %5, align 8, !tbaa !40
  %35 = load ptr, ptr %34, align 8, !tbaa !29
  %36 = call noundef i64 @_ZN4lean5unboxEP11lean_object(ptr noundef %35)
  store i64 %36, ptr %7, align 8, !tbaa !34
  %37 = call noundef nonnull align 8 dereferenceable(376) ptr @_ZN4leanlsImEERNS_4toutERKS1_RKT_(ptr noundef nonnull align 8 dereferenceable(376) %33, ptr noundef nonnull align 8 dereferenceable(8) %7)
  call void @llvm.lifetime.end.p0(i64 8, ptr %7) #18
  br label %50

38:                                               ; preds = %28
  %39 = load ptr, ptr %5, align 8, !tbaa !40
  %40 = load ptr, ptr %39, align 8, !tbaa !29
  %41 = icmp eq ptr %40, null
  br i1 %41, label %42, label %45

42:                                               ; preds = %38
  %43 = load ptr, ptr %4, align 8, !tbaa !42
  %44 = call noundef nonnull align 8 dereferenceable(376) ptr @_ZN4leanlsIA4_cEERNS_4toutERKS2_RKT_(ptr noundef nonnull align 8 dereferenceable(376) %43, ptr noundef nonnull align 1 dereferenceable(4) @.str.2)
  br label %49

45:                                               ; preds = %38
  %46 = load ptr, ptr %4, align 8, !tbaa !42
  %47 = load ptr, ptr %5, align 8, !tbaa !40
  %48 = call noundef nonnull align 8 dereferenceable(376) ptr @_ZN4leanlsIP11lean_objectEERNS_4toutERKS3_RKT_(ptr noundef nonnull align 8 dereferenceable(376) %46, ptr noundef nonnull align 8 dereferenceable(8) %47)
  br label %49

49:                                               ; preds = %45, %42
  br label %50

50:                                               ; preds = %49, %32
  br label %51

51:                                               ; preds = %50, %24
  br label %52

52:                                               ; preds = %51, %17
  br label %53

53:                                               ; preds = %52, %10
  ret void
}