; Function Attrs: mustprogress uwtable
define hidden void @_ZN4lean2ir11print_valueERNS_4toutERKNS0_5valueENS0_4typeE(ptr noundef nonnull align 8 dereferenceable(376) %0, ptr noundef nonnull readonly align 8 captures(none) dereferenceable(8) %1, i32 noundef %2) local_unnamed_addr #0 {
  switch i32 %2, label %11 [
    i32 0, label %4
    i32 9, label %7
  ]

4:                                                ; preds = %3
  %5 = load double, ptr %1, align 8, !tbaa !20
  %6 = tail call noundef nonnull align 8 dereferenceable(8) ptr @_ZNSo9_M_insertIdEERSoT_(ptr noundef nonnull align 8 dereferenceable(376) %0, double noundef %5)
  br label %29

7:                                                ; preds = %3
  %8 = load float, ptr %1, align 8, !tbaa !24
  %9 = fpext float %8 to double
  %10 = tail call noundef nonnull align 8 dereferenceable(8) ptr @_ZNSo9_M_insertIdEERSoT_(ptr noundef nonnull align 8 dereferenceable(376) %0, double noundef %9)
  br label %29

11:                                               ; preds = %3
  %12 = add i32 %2, -9
  %spec.select.i = icmp ult i32 %12, -3
  br i1 %spec.select.i, label %13, label %16

13:                                               ; preds = %11
  %14 = load i64, ptr %1, align 8, !tbaa !22
  %15 = tail call noundef nonnull align 8 dereferenceable(8) ptr @_ZNSo9_M_insertImEERSoT_(ptr noundef nonnull align 8 dereferenceable(376) %0, i64 noundef %14)
  br label %29

16:                                               ; preds = %11
  %17 = load ptr, ptr %1, align 8, !tbaa !11
  %18 = ptrtoint ptr %17 to i64
  %19 = and i64 %18, 1
  %.not = icmp eq i64 %19, 0
  br i1 %.not, label %23, label %20

20:                                               ; preds = %16
  %21 = lshr i64 %18, 1
  %22 = tail call noundef nonnull align 8 dereferenceable(8) ptr @_ZNSo9_M_insertImEERSoT_(ptr noundef nonnull align 8 dereferenceable(376) %0, i64 noundef %21)
  br label %29

23:                                               ; preds = %16
  %24 = icmp eq ptr %17, null
  br i1 %24, label %25, label %27

25:                                               ; preds = %23
  %26 = tail call noundef nonnull align 8 dereferenceable(8) ptr @_ZSt16__ostream_insertIcSt11char_traitsIcEERSt13basic_ostreamIT_T0_ES6_PKS3_l(ptr noundef nonnull align 8 dereferenceable(376) %0, ptr noundef nonnull align 1 dereferenceable(4) @.str.2, i64 noundef 3)
  br label %29

27:                                               ; preds = %23
  %28 = tail call noundef nonnull align 8 dereferenceable(8) ptr @_ZNSo9_M_insertIPKvEERSoT_(ptr noundef nonnull align 8 dereferenceable(376) %0, ptr noundef nonnull %17)
  br label %29

29:                                               ; preds = %7, %20, %27, %25, %13, %4
  ret void
}